(dp0
S'p'
p1
ccopy_reg
_reconstructor
p2
(cItem
Item
p3
c__builtin__
object
p4
Ntp5
Rp6
(dp7
S'price'
p8
F4.5
sS'identifier'
p9
g1
sS'name'
p10
S'Pinte'
p11
sbsS'c'
p12
g2
(g3
g4
Ntp13
Rp14
(dp15
g8
F1.0
sg9
g12
sg10
S'Caution'
p16
sbsS'r'
p17
g2
(g3
g4
Ntp18
Rp19
(dp20
g8
F-1.0
sg9
g17
sg10
S'Retour Caution'
p21
sbsS'f'
p22
g2
(g3
g4
Ntp23
Rp24
(dp25
g8
F2.0
sg9
g22
sg10
S'Frites'
p26
sbs.